target datalayout = "e-m:e-p270:32:32-p271:32:32-p272:64:64-i64:64-i128:128-f80:128-n8:16:32:64-S128"
target triple = "x86_64-pc-linux-gnu"

@.str.5 = private unnamed_addr constant [18 x i8] c"test_save_restore\00", align 1
@.str.7 = private unnamed_addr constant [26 x i8] c"../openssl/test/errtest.c\00", align 1
@.str.12 = private unnamed_addr constant [5 x i8] c"data\00", align 1
@.str.17 = private unnamed_addr constant [2 x i8] c"0\00", align 1
@.str.35 = private unnamed_addr constant [11 x i8] c"mallocfail\00", align 1
@.str.36 = private unnamed_addr constant [15 x i8] c"ERR_set_mark()\00", align 1
@.str.38 = private unnamed_addr constant [22 x i8] c"ERR_peek_last_error()\00", align 1
@.str.41 = private unnamed_addr constant [16 x i8] c"ERR_get_error()\00", align 1
@test_save_restore.testdata = internal constant [10 x i8] c"test data\00", align 1
@.str.42 = private unnamed_addr constant [26 x i8] c"es = OSSL_ERR_STATE_new()\00", align 1
@.str.43 = private unnamed_addr constant [2 x i8] c"1\00", align 1
@.str.44 = private unnamed_addr constant [7 x i8] c"interr\00", align 1
@.str.45 = private unnamed_addr constant [9 x i8] c"testdata\00", align 1
@.str.46 = private unnamed_addr constant [6 x i8] c"flags\00", align 1
@.str.47 = private unnamed_addr constant [34 x i8] c"ERR_TXT_STRING | ERR_TXT_MALLOCED\00", align 1
@.str.48 = private unnamed_addr constant [51 x i8] c"ERR_get_error_all(NULL, NULL, NULL, &data, &flags)\00", align 1

; Function Attrs: nounwind uwtable
define internal i32 @test_save_restore(i32 noundef %0) #0 {
  %2 = alloca i32, align 4
  %3 = alloca ptr, align 8
  %4 = alloca i32, align 4
  %5 = alloca i32, align 4
  %6 = alloca i32, align 4
  %7 = alloca i64, align 8
  %8 = alloca i64, align 8
  %9 = alloca ptr, align 8
  store i32 %0, ptr %2, align 4, !tbaa !4
  call void @llvm.lifetime.start.p0(i64 8, ptr %3) #8
  call void @llvm.lifetime.start.p0(i64 4, ptr %4) #8
  store i32 0, ptr %4, align 4, !tbaa !4
  call void @llvm.lifetime.start.p0(i64 4, ptr %5) #8
  call void @llvm.lifetime.start.p0(i64 4, ptr %6) #8
  store i32 -1, ptr %6, align 4, !tbaa !4
  call void @llvm.lifetime.start.p0(i64 8, ptr %7) #8
  call void @llvm.lifetime.start.p0(i64 8, ptr %8) #8
  call void @llvm.lifetime.start.p0(i64 8, ptr %9) #8
  store ptr null, ptr %9, align 8, !tbaa !8
  %10 = call ptr @OSSL_ERR_STATE_new()
  store ptr %10, ptr %3, align 8, !tbaa !18
  %11 = call i32 @test_ptr(ptr noundef @.str.7, i32 noundef 350, ptr noundef @.str.42, ptr noundef %10)
  %12 = icmp ne i32 %11, 0
  br i1 %12, label %14, label %13

13:                                               ; preds = %1
  br label %143

14:                                               ; preds = %1
  call void @ERR_new()
  call void @ERR_set_debug(ptr noundef @.str.7, i32 noundef 353, ptr noundef @.str.5)
  call void (i32, i32, ptr, ...) @ERR_set_error(i32 noundef 15, i32 noundef 786688, ptr noundef null)
  %15 = call i64 @ERR_peek_last_error()
  store i64 %15, ptr %7, align 8, !tbaa !11
  %16 = load i64, ptr %7, align 8, !tbaa !11
  %17 = call i32 @test_ulong_gt(ptr noundef @.str.7, i32 noundef 355, ptr noundef @.str.35, ptr noundef @.str.17, i64 noundef %16, i64 noundef 0)
  %18 = icmp ne i32 %17, 0
  br i1 %18, label %20, label %19

19:                                               ; preds = %14
  br label %143

20:                                               ; preds = %14
  %21 = load i32, ptr %2, align 4, !tbaa !4
  %22 = icmp eq i32 %21, 1
  br i1 %22, label %23, label %28

23:                                               ; preds = %20
  %24 = call i32 @ERR_set_mark()
  %25 = call i32 @test_int_eq(ptr noundef @.str.7, i32 noundef 358, ptr noundef @.str.36, ptr noundef @.str.43, i32 noundef %24, i32 noundef 1)
  %26 = icmp ne i32 %25, 0
  br i1 %26, label %28, label %27

27:                                               ; preds = %23
  br label %143

28:                                               ; preds = %23, %20
  call void @ERR_new()
  call void @ERR_set_debug(ptr noundef @.str.7, i32 noundef 361, ptr noundef @.str.5)
  call void (i32, i32, ptr, ...) @ERR_set_error(i32 noundef 15, i32 noundef 786691, ptr noundef @test_save_restore.testdata)
  %29 = call i64 @ERR_peek_last_error()
  store i64 %29, ptr %8, align 8, !tbaa !11
  %30 = load i64, ptr %7, align 8, !tbaa !11
  %31 = call i64 @ERR_peek_last_error()
  %32 = call i32 @test_ulong_ne(ptr noundef @.str.7, i32 noundef 363, ptr noundef @.str.35, ptr noundef @.str.38, i64 noundef %30, i64 noundef %31)
  %33 = icmp ne i32 %32, 0
  br i1 %33, label %35, label %34

34:                                               ; preds = %28
  br label %143

35:                                               ; preds = %28
  %36 = load i32, ptr %2, align 4, !tbaa !4
  %37 = icmp eq i32 %36, 0
  br i1 %37, label %38, label %45

38:                                               ; preds = %35
  %39 = load ptr, ptr %3, align 8, !tbaa !18
  call void @OSSL_ERR_STATE_save(ptr noundef %39)
  %40 = call i64 @ERR_peek_last_error()
  %41 = call i32 @test_ulong_eq(ptr noundef @.str.7, i32 noundef 369, ptr noundef @.str.38, ptr noundef @.str.17, i64 noundef %40, i64 noundef 0)
  %42 = icmp ne i32 %41, 0
  br i1 %42, label %44, label %43

43:                                               ; preds = %38
  br label %143

44:                                               ; preds = %38
  br label %52

45:                                               ; preds = %35
  %46 = load ptr, ptr %3, align 8, !tbaa !18
  call void @OSSL_ERR_STATE_save_to_mark(ptr noundef %46)
  %47 = call i64 @ERR_peek_last_error()
  %48 = call i32 @test_ulong_ne(ptr noundef @.str.7, i32 noundef 374, ptr noundef @.str.38, ptr noundef @.str.17, i64 noundef %47, i64 noundef 0)
  %49 = icmp ne i32 %48, 0
  br i1 %49, label %51, label %50

50:                                               ; preds = %45
  br label %143

51:                                               ; preds = %45
  br label %52

52:                                               ; preds = %51, %44
  store i32 0, ptr %5, align 4, !tbaa !4
  br label %53

53:                                               ; preds = %139, %52
  %54 = load i32, ptr %5, align 4, !tbaa !4
  %55 = icmp slt i32 %54, 2
  br i1 %55, label %56, label %142

56:                                               ; preds = %53
  %57 = load ptr, ptr %3, align 8, !tbaa !18
  call void @OSSL_ERR_STATE_restore(ptr noundef %57)
  %58 = call i64 @ERR_peek_last_error()
  %59 = load i64, ptr %8, align 8, !tbaa !11
  %60 = call i32 @test_ulong_eq(ptr noundef @.str.7, i32 noundef 381, ptr noundef @.str.38, ptr noundef @.str.44, i64 noundef %58, i64 noundef %59)
  %61 = icmp ne i32 %60, 0
  br i1 %61, label %63, label %62

62:                                               ; preds = %56
  br label %143

63:                                               ; preds = %56
  %64 = call i64 @ERR_peek_last_error_data(ptr noundef %9, ptr noundef %6)
  %65 = load ptr, ptr %9, align 8, !tbaa !8
  %66 = call i32 @test_str_eq(ptr noundef @.str.7, i32 noundef 384, ptr noundef @.str.12, ptr noundef @.str.45, ptr noundef %65, ptr noundef @test_save_restore.testdata)
  %67 = icmp ne i32 %66, 0
  br i1 %67, label %68, label %72

68:                                               ; preds = %63
  %69 = load i32, ptr %6, align 4, !tbaa !4
  %70 = call i32 @test_int_eq(ptr noundef @.str.7, i32 noundef 385, ptr noundef @.str.46, ptr noundef @.str.47, i32 noundef %69, i32 noundef 3)
  %71 = icmp ne i32 %70, 0
  br i1 %71, label %73, label %72

72:                                               ; preds = %68, %63
  br label %143

73:                                               ; preds = %68
  %74 = load ptr, ptr %3, align 8, !tbaa !18
  call void @OSSL_ERR_STATE_restore(ptr noundef %74)
  %75 = load i32, ptr %2, align 4, !tbaa !4
  %76 = icmp eq i32 %75, 0
  br i1 %76, label %80, label %77

77:                                               ; preds = %73
  %78 = load i32, ptr %5, align 4, !tbaa !4
  %79 = icmp eq i32 %78, 0
  br i1 %79, label %80, label %91

80:                                               ; preds = %77, %73
  %81 = call i64 @ERR_get_error_all(ptr noundef null, ptr noundef null, ptr noundef null, ptr noundef %9, ptr noundef %6)
  %82 = load i64, ptr %7, align 8, !tbaa !11
  %83 = call i32 @test_ulong_eq(ptr noundef @.str.7, i32 noundef 394, ptr noundef @.str.48, ptr noundef @.str.35, i64 noundef %81, i64 noundef %82)
  %84 = icmp ne i32 %83, 0
  br i1 %84, label %85, label %89

85:                                               ; preds = %80
  %86 = load i32, ptr %6, align 4, !tbaa !4
  %87 = call i32 @test_int_ne(ptr noundef @.str.7, i32 noundef 395, ptr noundef @.str.46, ptr noundef @.str.47, i32 noundef %86, i32 noundef 3)
  %88 = icmp ne i32 %87, 0
  br i1 %88, label %90, label %89

89:                                               ; preds = %85, %80
  br label %143

90:                                               ; preds = %85
  br label %91

91:                                               ; preds = %90, %77
  %92 = call i64 @ERR_get_error_all(ptr noundef null, ptr noundef null, ptr noundef null, ptr noundef %9, ptr noundef %6)
  %93 = load i64, ptr %8, align 8, !tbaa !11
  %94 = call i32 @test_ulong_eq(ptr noundef @.str.7, i32 noundef 400, ptr noundef @.str.48, ptr noundef @.str.44, i64 noundef %92, i64 noundef %93)
  %95 = icmp ne i32 %94, 0
  br i1 %95, label %96, label %104

96:                                               ; preds = %91
  %97 = load ptr, ptr %9, align 8, !tbaa !8
  %98 = call i32 @test_str_eq(ptr noundef @.str.7, i32 noundef 401, ptr noundef @.str.12, ptr noundef @.str.45, ptr noundef %97, ptr noundef @test_save_restore.testdata)
  %99 = icmp ne i32 %98, 0
  br i1 %99, label %100, label %104

100:                                              ; preds = %96
  %101 = load i32, ptr %6, align 4, !tbaa !4
  %102 = call i32 @test_int_eq(ptr noundef @.str.7, i32 noundef 402, ptr noundef @.str.46, ptr noundef @.str.47, i32 noundef %101, i32 noundef 3)
  %103 = icmp ne i32 %102, 0
  br i1 %103, label %105, label %104

104:                                              ; preds = %100, %96, %91
  br label %143

105:                                              ; preds = %100
  %106 = load i32, ptr %2, align 4, !tbaa !4
  %107 = icmp eq i32 %106, 0
  br i1 %107, label %108, label %119

108:                                              ; preds = %105
  %109 = call i64 @ERR_get_error_all(ptr noundef null, ptr noundef null, ptr noundef null, ptr noundef %9, ptr noundef %6)
  %110 = load i64, ptr %7, align 8, !tbaa !11
  %111 = call i32 @test_ulong_eq(ptr noundef @.str.7, i32 noundef 407, ptr noundef @.str.48, ptr noundef @.str.35, i64 noundef %109, i64 noundef %110)
  %112 = icmp ne i32 %111, 0
  br i1 %112, label %113, label %117

113:                                              ; preds = %108
  %114 = load i32, ptr %6, align 4, !tbaa !4
  %115 = call i32 @test_int_ne(ptr noundef @.str.7, i32 noundef 408, ptr noundef @.str.46, ptr noundef @.str.47, i32 noundef %114, i32 noundef 3)
  %116 = icmp ne i32 %115, 0
  br i1 %116, label %118, label %117

117:                                              ; preds = %113, %108
  br label %143

118:                                              ; preds = %113
  br label %119

119:                                              ; preds = %118, %105
  %120 = call i64 @ERR_get_error_all(ptr noundef null, ptr noundef null, ptr noundef null, ptr noundef %9, ptr noundef %6)
  %121 = load i64, ptr %8, align 8, !tbaa !11
  %122 = call i32 @test_ulong_eq(ptr noundef @.str.7, i32 noundef 413, ptr noundef @.str.48, ptr noundef @.str.44, i64 noundef %120, i64 noundef %121)
  %123 = icmp ne i32 %122, 0
  br i1 %123, label %124, label %132

124:                                              ; preds = %119
  %125 = load ptr, ptr %9, align 8, !tbaa !8
  %126 = call i32 @test_str_eq(ptr noundef @.str.7, i32 noundef 414, ptr noundef @.str.12, ptr noundef @.str.45, ptr noundef %125, ptr noundef @test_save_restore.testdata)
  %127 = icmp ne i32 %126, 0
  br i1 %127, label %128, label %132

128:                                              ; preds = %124
  %129 = load i32, ptr %6, align 4, !tbaa !4
  %130 = call i32 @test_int_eq(ptr noundef @.str.7, i32 noundef 415, ptr noundef @.str.46, ptr noundef @.str.47, i32 noundef %129, i32 noundef 3)
  %131 = icmp ne i32 %130, 0
  br i1 %131, label %133, label %132

132:                                              ; preds = %128, %124, %119
  br label %143

133:                                              ; preds = %128
  %134 = call i64 @ERR_get_error()
  %135 = call i32 @test_ulong_eq(ptr noundef @.str.7, i32 noundef 418, ptr noundef @.str.41, ptr noundef @.str.17, i64 noundef %134, i64 noundef 0)
  %136 = icmp ne i32 %135, 0
  br i1 %136, label %138, label %137

137:                                              ; preds = %133
  br label %143

138:                                              ; preds = %133
  br label %139

139:                                              ; preds = %138
  %140 = load i32, ptr %5, align 4, !tbaa !4
  %141 = add nsw i32 %140, 1
  store i32 %141, ptr %5, align 4, !tbaa !4
  br label %53, !llvm.loop !20

142:                                              ; preds = %53
  store i32 1, ptr %4, align 4, !tbaa !4
  br label %143

143:                                              ; preds = %142, %137, %132, %117, %104, %89, %72, %62, %50, %43, %34, %27, %19, %13
  %144 = load ptr, ptr %3, align 8, !tbaa !18
  call void @OSSL_ERR_STATE_free(ptr noundef %144)
  %145 = load i32, ptr %4, align 4, !tbaa !4
  call void @llvm.lifetime.end.p0(i64 8, ptr %9) #8
  call void @llvm.lifetime.end.p0(i64 8, ptr %8) #8
  call void @llvm.lifetime.end.p0(i64 8, ptr %7) #8
  call void @llvm.lifetime.end.p0(i64 4, ptr %6) #8
  call void @llvm.lifetime.end.p0(i64 4, ptr %5) #8
  call void @llvm.lifetime.end.p0(i64 4, ptr %4) #8
  call void @llvm.lifetime.end.p0(i64 8, ptr %3) #8
  ret i32 %145
}