; Function Attrs: nounwind uwtable
define internal range(i32 0, 2) i32 @test_save_restore(i32 noundef %0) #0 {
  %2 = alloca i32, align 4
  %3 = alloca ptr, align 8
  call void @llvm.lifetime.start.p0(i64 4, ptr nonnull %2) #6
  store i32 -1, ptr %2, align 4, !tbaa !4
  call void @llvm.lifetime.start.p0(i64 8, ptr nonnull %3) #6
  store ptr null, ptr %3, align 8, !tbaa !8
  %4 = tail call ptr @OSSL_ERR_STATE_new() #6
  %5 = tail call i32 @test_ptr(ptr noundef nonnull @.str.7, i32 noundef 350, ptr noundef nonnull @.str.42, ptr noundef %4) #6
  %.not = icmp eq i32 %5, 0
  br i1 %.not, label %.loopexit, label %6

6:                                                ; preds = %1
  tail call void @ERR_new() #6
  tail call void @ERR_set_debug(ptr noundef nonnull @.str.7, i32 noundef 353, ptr noundef nonnull @.str.5) #6
  tail call void (i32, i32, ptr, ...) @ERR_set_error(i32 noundef 15, i32 noundef 786688, ptr noundef null) #6
  %7 = tail call i64 @ERR_peek_last_error() #6
  %8 = tail call i32 @test_ulong_gt(ptr noundef nonnull @.str.7, i32 noundef 355, ptr noundef nonnull @.str.35, ptr noundef nonnull @.str.17, i64 noundef %7, i64 noundef 0) #6
  %.not21 = icmp eq i32 %8, 0
  br i1 %.not21, label %.loopexit, label %9

9:                                                ; preds = %6
  %10 = icmp eq i32 %0, 1
  br i1 %10, label %11, label %14

11:                                               ; preds = %9
  %12 = tail call i32 @ERR_set_mark() #6
  %13 = tail call i32 @test_int_eq(ptr noundef nonnull @.str.7, i32 noundef 358, ptr noundef nonnull @.str.36, ptr noundef nonnull @.str.43, i32 noundef %12, i32 noundef 1) #6
  %.not22 = icmp eq i32 %13, 0
  br i1 %.not22, label %.loopexit, label %14

14:                                               ; preds = %11, %9
  tail call void @ERR_new() #6
  tail call void @ERR_set_debug(ptr noundef nonnull @.str.7, i32 noundef 361, ptr noundef nonnull @.str.5) #6
  tail call void (i32, i32, ptr, ...) @ERR_set_error(i32 noundef 15, i32 noundef 786691, ptr noundef nonnull @test_save_restore.testdata) #6
  %15 = tail call i64 @ERR_peek_last_error() #6
  %16 = tail call i64 @ERR_peek_last_error() #6
  %17 = tail call i32 @test_ulong_ne(ptr noundef nonnull @.str.7, i32 noundef 363, ptr noundef nonnull @.str.35, ptr noundef nonnull @.str.38, i64 noundef %7, i64 noundef %16) #6
  %.not23 = icmp eq i32 %17, 0
  br i1 %.not23, label %.loopexit, label %18

18:                                               ; preds = %14
  %19 = icmp eq i32 %0, 0
  br i1 %19, label %20, label %23

20:                                               ; preds = %18
  tail call void @OSSL_ERR_STATE_save(ptr noundef %4) #6
  %21 = tail call i64 @ERR_peek_last_error() #6
  %22 = tail call i32 @test_ulong_eq(ptr noundef nonnull @.str.7, i32 noundef 369, ptr noundef nonnull @.str.38, ptr noundef nonnull @.str.17, i64 noundef %21, i64 noundef 0) #6
  %.not25 = icmp eq i32 %22, 0
  br i1 %.not25, label %.loopexit, label %.preheader

23:                                               ; preds = %18
  tail call void @OSSL_ERR_STATE_save_to_mark(ptr noundef %4) #6
  %24 = tail call i64 @ERR_peek_last_error() #6
  %25 = tail call i32 @test_ulong_ne(ptr noundef nonnull @.str.7, i32 noundef 374, ptr noundef nonnull @.str.38, ptr noundef nonnull @.str.17, i64 noundef %24, i64 noundef 0) #6
  %.not24 = icmp eq i32 %25, 0
  br i1 %.not24, label %.loopexit, label %.preheader

.preheader:                                       ; preds = %23, %20
  br label %26

26:                                               ; preds = %.preheader, %69
  %27 = phi i1 [ false, %69 ], [ true, %.preheader ]
  call void @OSSL_ERR_STATE_restore(ptr noundef %4) #6
  %28 = call i64 @ERR_peek_last_error() #6
  %29 = call i32 @test_ulong_eq(ptr noundef nonnull @.str.7, i32 noundef 381, ptr noundef nonnull @.str.38, ptr noundef nonnull @.str.44, i64 noundef %28, i64 noundef %15) #6
  %.not26 = icmp eq i32 %29, 0
  br i1 %.not26, label %.loopexit, label %30

30:                                               ; preds = %26
  %31 = call i64 @ERR_peek_last_error_data(ptr noundef nonnull %3, ptr noundef nonnull %2) #6
  %32 = load ptr, ptr %3, align 8, !tbaa !8
  %33 = call i32 @test_str_eq(ptr noundef nonnull @.str.7, i32 noundef 384, ptr noundef nonnull @.str.12, ptr noundef nonnull @.str.45, ptr noundef %32, ptr noundef nonnull @test_save_restore.testdata) #6
  %.not27 = icmp eq i32 %33, 0
  br i1 %.not27, label %.loopexit, label %34

34:                                               ; preds = %30
  %35 = load i32, ptr %2, align 4, !tbaa !4
  %36 = call i32 @test_int_eq(ptr noundef nonnull @.str.7, i32 noundef 385, ptr noundef nonnull @.str.46, ptr noundef nonnull @.str.47, i32 noundef %35, i32 noundef 3) #6
  %.not28 = icmp eq i32 %36, 0
  br i1 %.not28, label %.loopexit, label %37

37:                                               ; preds = %34
  call void @OSSL_ERR_STATE_restore(ptr noundef %4) #6
  %or.cond = or i1 %19, %27
  br i1 %or.cond, label %38, label %44

38:                                               ; preds = %37
  %39 = call i64 @ERR_get_error_all(ptr noundef null, ptr noundef null, ptr noundef null, ptr noundef nonnull %3, ptr noundef nonnull %2) #6
  %40 = call i32 @test_ulong_eq(ptr noundef nonnull @.str.7, i32 noundef 394, ptr noundef nonnull @.str.48, ptr noundef nonnull @.str.35, i64 noundef %39, i64 noundef %7) #6
  %.not29 = icmp eq i32 %40, 0
  br i1 %.not29, label %.loopexit, label %41

41:                                               ; preds = %38
  %42 = load i32, ptr %2, align 4, !tbaa !4
  %43 = call i32 @test_int_ne(ptr noundef nonnull @.str.7, i32 noundef 395, ptr noundef nonnull @.str.46, ptr noundef nonnull @.str.47, i32 noundef %42, i32 noundef 3) #6
  %.not30 = icmp eq i32 %43, 0
  br i1 %.not30, label %.loopexit, label %44

44:                                               ; preds = %41, %37
  %45 = call i64 @ERR_get_error_all(ptr noundef null, ptr noundef null, ptr noundef null, ptr noundef nonnull %3, ptr noundef nonnull %2) #6
  %46 = call i32 @test_ulong_eq(ptr noundef nonnull @.str.7, i32 noundef 400, ptr noundef nonnull @.str.48, ptr noundef nonnull @.str.44, i64 noundef %45, i64 noundef %15) #6
  %.not31 = icmp eq i32 %46, 0
  br i1 %.not31, label %.loopexit, label %47

47:                                               ; preds = %44
  %48 = load ptr, ptr %3, align 8, !tbaa !8
  %49 = call i32 @test_str_eq(ptr noundef nonnull @.str.7, i32 noundef 401, ptr noundef nonnull @.str.12, ptr noundef nonnull @.str.45, ptr noundef %48, ptr noundef nonnull @test_save_restore.testdata) #6
  %.not32 = icmp eq i32 %49, 0
  br i1 %.not32, label %.loopexit, label %50

50:                                               ; preds = %47
  %51 = load i32, ptr %2, align 4, !tbaa !4
  %52 = call i32 @test_int_eq(ptr noundef nonnull @.str.7, i32 noundef 402, ptr noundef nonnull @.str.46, ptr noundef nonnull @.str.47, i32 noundef %51, i32 noundef 3) #6
  %.not33 = icmp eq i32 %52, 0
  br i1 %.not33, label %.loopexit, label %53

53:                                               ; preds = %50
  br i1 %19, label %54, label %60

54:                                               ; preds = %53
  %55 = call i64 @ERR_get_error_all(ptr noundef null, ptr noundef null, ptr noundef null, ptr noundef nonnull %3, ptr noundef nonnull %2) #6
  %56 = call i32 @test_ulong_eq(ptr noundef nonnull @.str.7, i32 noundef 407, ptr noundef nonnull @.str.48, ptr noundef nonnull @.str.35, i64 noundef %55, i64 noundef %7) #6
  %.not34 = icmp eq i32 %56, 0
  br i1 %.not34, label %.loopexit, label %57

57:                                               ; preds = %54
  %58 = load i32, ptr %2, align 4, !tbaa !4
  %59 = call i32 @test_int_ne(ptr noundef nonnull @.str.7, i32 noundef 408, ptr noundef nonnull @.str.46, ptr noundef nonnull @.str.47, i32 noundef %58, i32 noundef 3) #6
  %.not35 = icmp eq i32 %59, 0
  br i1 %.not35, label %.loopexit, label %60

60:                                               ; preds = %57, %53
  %61 = call i64 @ERR_get_error_all(ptr noundef null, ptr noundef null, ptr noundef null, ptr noundef nonnull %3, ptr noundef nonnull %2) #6
  %62 = call i32 @test_ulong_eq(ptr noundef nonnull @.str.7, i32 noundef 413, ptr noundef nonnull @.str.48, ptr noundef nonnull @.str.44, i64 noundef %61, i64 noundef %15) #6
  %.not36 = icmp eq i32 %62, 0
  br i1 %.not36, label %.loopexit, label %63

63:                                               ; preds = %60
  %64 = load ptr, ptr %3, align 8, !tbaa !8
  %65 = call i32 @test_str_eq(ptr noundef nonnull @.str.7, i32 noundef 414, ptr noundef nonnull @.str.12, ptr noundef nonnull @.str.45, ptr noundef %64, ptr noundef nonnull @test_save_restore.testdata) #6
  %.not37 = icmp eq i32 %65, 0
  br i1 %.not37, label %.loopexit, label %66

66:                                               ; preds = %63
  %67 = load i32, ptr %2, align 4, !tbaa !4
  %68 = call i32 @test_int_eq(ptr noundef nonnull @.str.7, i32 noundef 415, ptr noundef nonnull @.str.46, ptr noundef nonnull @.str.47, i32 noundef %67, i32 noundef 3) #6
  %.not38 = icmp eq i32 %68, 0
  br i1 %.not38, label %.loopexit, label %69

69:                                               ; preds = %66
  %70 = call i64 @ERR_get_error() #6
  %71 = call i32 @test_ulong_eq(ptr noundef nonnull @.str.7, i32 noundef 418, ptr noundef nonnull @.str.41, ptr noundef nonnull @.str.17, i64 noundef %70, i64 noundef 0) #6
  %.not39 = icmp ne i32 %71, 0
  %brmerge.not = and i1 %.not39, %27
  br i1 %brmerge.not, label %26, label %.loopexit.loopexit.split.loop.exit

.loopexit.loopexit.split.loop.exit:               ; preds = %69
  %.mux.le = zext i1 %.not39 to i32
  br label %.loopexit

.loopexit:                                        ; preds = %.loopexit.loopexit.split.loop.exit, %26, %34, %30, %41, %38, %50, %47, %44, %57, %54, %66, %63, %60, %23, %20, %14, %11, %6, %1
  %.0 = phi i32 [ 0, %20 ], [ 0, %23 ], [ 0, %14 ], [ 0, %11 ], [ 0, %6 ], [ 0, %1 ], [ %.mux.le, %.loopexit.loopexit.split.loop.exit ], [ 0, %26 ], [ 0, %34 ], [ 0, %30 ], [ 0, %41 ], [ 0, %38 ], [ 0, %50 ], [ 0, %47 ], [ 0, %44 ], [ 0, %57 ], [ 0, %54 ], [ 0, %66 ], [ 0, %63 ], [ 0, %60 ]
  call void @OSSL_ERR_STATE_free(ptr noundef %4) #6
  call void @llvm.lifetime.end.p0(i64 8, ptr nonnull %3) #6
  call void @llvm.lifetime.end.p0(i64 4, ptr nonnull %2) #6
  ret i32 %.0
}